; Function Attrs: mustprogress uwtable
define hidden noundef nonnull align 8 dereferenceable(8) ptr @_ZNK3nla6solver7displayERSo(ptr noundef nonnull readonly align 8 captures(none) dereferenceable(8) %0, ptr noundef nonnull returned align 8 dereferenceable(8) %1) local_unnamed_addr #4 align 2 {
  %3 = load ptr, ptr %0, align 8, !tbaa !3
  %4 = tail call noundef nonnull align 8 dereferenceable(8) ptr @_ZNK3nla4core12print_monicsERSo(ptr noundef nonnull align 8 dereferenceable(4736) %3, ptr noundef nonnull align 8 dereferenceable(8) %1)
  %5 = load ptr, ptr %0, align 8, !tbaa !3
  %6 = getelementptr inbounds nuw i8, ptr %5, i64 4704
  %7 = load i8, ptr %6, align 8, !tbaa !21, !range !188, !noundef !189
  %8 = trunc nuw i8 %7 to i1
  br i1 %8, label %9, label %12

9:                                                ; preds = %2
  %10 = getelementptr inbounds nuw i8, ptr %5, i64 4712
  %11 = tail call noundef nonnull align 8 dereferenceable(8) ptr @_ZNK3nra6solver7displayERSo(ptr noundef nonnull align 8 dereferenceable(8) %10, ptr noundef nonnull align 8 dereferenceable(8) %1)
  br label %12

12:                                               ; preds = %9, %2
  ret ptr %1
}